target datalayout = "e-m:e-p270:32:32-p271:32:32-p272:64:64-i64:64-i128:128-f80:128-n8:16:32:64-S128"
target triple = "x86_64-pc-linux-gnu"

%"class.google::protobuf::internal::LogMessage" = type { i32, ptr, i32, %"class.std::__cxx11::basic_string" }
%"class.std::__cxx11::basic_string" = type { %"struct.std::__cxx11::basic_string<char>::_Alloc_hider", i64, %union.anon }
%"struct.std::__cxx11::basic_string<char>::_Alloc_hider" = type { ptr }
%union.anon = type { i64, [8 x i8] }
%"class.google::protobuf::internal::LogFinisher" = type { i8 }
%"class.google::protobuf::strings::ByteSink" = type { ptr }
%"class.google::protobuf::strings::CheckedArrayByteSink" = type <{ %"class.google::protobuf::strings::ByteSink", ptr, i64, i64, i8, [7 x i8] }>

@.str = private unnamed_addr constant [149 x i8] c"generated/home/dtcxzyw/WorkSpace/Projects/compilers/llvm-opt-benchmark/bench/opencv/opencv/3rdparty/protobuf/src/google/protobuf/stubs/bytestream.cc\00", align 1
@.str.4 = private unnamed_addr constant [69 x i8] c"CHECK failed: !(outbuf_ <= bytes && bytes < (outbuf_ + capacity_)): \00", align 1
@.str.5 = private unnamed_addr constant [41 x i8] c"Append() bytes[] overlaps with outbuf_[]\00", align 1

; Function Attrs: mustprogress uwtable
define hidden void @_ZN6google8protobuf7strings20CheckedArrayByteSink6AppendEPKcm(ptr noundef nonnull align 8 dereferenceable(33) %0, ptr noundef %1, i64 noundef %2) unnamed_addr #4 align 2 personality ptr @__gxx_personality_v0 {
  %4 = alloca ptr, align 8
  %5 = alloca ptr, align 8
  %6 = alloca i64, align 8
  %7 = alloca i64, align 8
  %8 = alloca %"class.google::protobuf::internal::LogMessage", align 8
  %9 = alloca i1, align 1
  %10 = alloca i1, align 1
  %11 = alloca ptr, align 8
  %12 = alloca i32, align 4
  %13 = alloca %"class.google::protobuf::internal::LogFinisher", align 1
  store ptr %0, ptr %4, align 8, !tbaa !31
  store ptr %1, ptr %5, align 8, !tbaa !26
  store i64 %2, ptr %6, align 8, !tbaa !10
  %14 = load ptr, ptr %4, align 8
  call void @llvm.lifetime.start.p0(i64 8, ptr %7) #3
  %15 = getelementptr inbounds nuw %"class.google::protobuf::strings::CheckedArrayByteSink", ptr %14, i32 0, i32 2
  %16 = load i64, ptr %15, align 8, !tbaa !36
  %17 = getelementptr inbounds nuw %"class.google::protobuf::strings::CheckedArrayByteSink", ptr %14, i32 0, i32 3
  %18 = load i64, ptr %17, align 8, !tbaa !37
  %19 = sub i64 %16, %18
  store i64 %19, ptr %7, align 8, !tbaa !10
  %20 = load i64, ptr %6, align 8, !tbaa !10
  %21 = load i64, ptr %7, align 8, !tbaa !10
  %22 = icmp ugt i64 %20, %21
  br i1 %22, label %23, label %26

23:                                               ; preds = %3
  %24 = load i64, ptr %7, align 8, !tbaa !10
  store i64 %24, ptr %6, align 8, !tbaa !10
  %25 = getelementptr inbounds nuw %"class.google::protobuf::strings::CheckedArrayByteSink", ptr %14, i32 0, i32 4
  store i8 1, ptr %25, align 8, !tbaa !38
  br label %26

26:                                               ; preds = %23, %3
  %27 = load i64, ptr %6, align 8, !tbaa !10
  %28 = icmp ugt i64 %27, 0
  br i1 %28, label %29, label %89

29:                                               ; preds = %26
  %30 = load ptr, ptr %5, align 8, !tbaa !26
  %31 = getelementptr inbounds nuw %"class.google::protobuf::strings::CheckedArrayByteSink", ptr %14, i32 0, i32 1
  %32 = load ptr, ptr %31, align 8, !tbaa !33
  %33 = getelementptr inbounds nuw %"class.google::protobuf::strings::CheckedArrayByteSink", ptr %14, i32 0, i32 3
  %34 = load i64, ptr %33, align 8, !tbaa !37
  %35 = getelementptr inbounds nuw i8, ptr %32, i64 %34
  %36 = icmp ne ptr %30, %35
  br i1 %36, label %37, label %89

37:                                               ; preds = %29
  br label %38

38:                                               ; preds = %65, %37
  br i1 false, label %39, label %81

39:                                               ; preds = %38
  %40 = getelementptr inbounds nuw %"class.google::protobuf::strings::CheckedArrayByteSink", ptr %14, i32 0, i32 1
  %41 = load ptr, ptr %40, align 8, !tbaa !33
  %42 = load ptr, ptr %5, align 8, !tbaa !26
  %43 = icmp ule ptr %41, %42
  store i1 false, ptr %9, align 1
  store i1 false, ptr %10, align 1
  call void @llvm.lifetime.start.p0(i64 1, ptr %13) #3
  br i1 %43, label %44, label %52

44:                                               ; preds = %39
  %45 = load ptr, ptr %5, align 8, !tbaa !26
  %46 = getelementptr inbounds nuw %"class.google::protobuf::strings::CheckedArrayByteSink", ptr %14, i32 0, i32 1
  %47 = load ptr, ptr %46, align 8, !tbaa !33
  %48 = getelementptr inbounds nuw %"class.google::protobuf::strings::CheckedArrayByteSink", ptr %14, i32 0, i32 2
  %49 = load i64, ptr %48, align 8, !tbaa !36
  %50 = getelementptr inbounds nuw i8, ptr %47, i64 %49
  %51 = icmp ult ptr %45, %50
  br i1 %51, label %53, label %52

52:                                               ; preds = %44, %39
  br label %59

53:                                               ; preds = %44
  call void @llvm.lifetime.start.p0(i64 56, ptr %8) #3
  store i1 true, ptr %9, align 1
  call void @_ZN6google8protobuf8internal10LogMessageC1ENS0_8LogLevelEPKci(ptr noundef nonnull align 8 dereferenceable(56) %8, i32 noundef 3, ptr noundef @.str, i32 noundef 80)
  store i1 true, ptr %10, align 1
  %54 = invoke noundef nonnull align 8 dereferenceable(56) ptr @_ZN6google8protobuf8internal10LogMessagelsEPKc(ptr noundef nonnull align 8 dereferenceable(56) %8, ptr noundef @.str.4)
          to label %55 unwind label %66

55:                                               ; preds = %53
  %56 = invoke noundef nonnull align 8 dereferenceable(56) ptr @_ZN6google8protobuf8internal10LogMessagelsEPKc(ptr noundef nonnull align 8 dereferenceable(56) %54, ptr noundef @.str.5)
          to label %57 unwind label %66

57:                                               ; preds = %55
  invoke void @_ZN6google8protobuf8internal11LogFinisheraSERNS1_10LogMessageE(ptr noundef nonnull align 1 dereferenceable(1) %13, ptr noundef nonnull align 8 dereferenceable(56) %56)
          to label %58 unwind label %70

58:                                               ; preds = %57
  br label %59

59:                                               ; preds = %58, %52
  call void @llvm.lifetime.end.p0(i64 1, ptr %13) #3
  %60 = load i1, ptr %10, align 1
  br i1 %60, label %61, label %62

61:                                               ; preds = %59
  call void @_ZN6google8protobuf8internal10LogMessageD1Ev(ptr noundef nonnull align 8 dereferenceable(56) %8) #3
  br label %62

62:                                               ; preds = %61, %59
  %63 = load i1, ptr %9, align 1
  br i1 %63, label %64, label %65

64:                                               ; preds = %62
  call void @llvm.lifetime.end.p0(i64 56, ptr %8) #3
  br label %65

65:                                               ; preds = %64, %62
  br label %38, !llvm.loop !39

66:                                               ; preds = %55, %53
  %67 = landingpad { ptr, i32 }
          cleanup
  %68 = extractvalue { ptr, i32 } %67, 0
  store ptr %68, ptr %11, align 8
  %69 = extractvalue { ptr, i32 } %67, 1
  store i32 %69, ptr %12, align 4
  br label %74

70:                                               ; preds = %57
  %71 = landingpad { ptr, i32 }
          cleanup
  %72 = extractvalue { ptr, i32 } %71, 0
  store ptr %72, ptr %11, align 8
  %73 = extractvalue { ptr, i32 } %71, 1
  store i32 %73, ptr %12, align 4
  call void @llvm.lifetime.end.p0(i64 1, ptr %13) #3
  br label %74

74:                                               ; preds = %70, %66
  %75 = load i1, ptr %10, align 1
  br i1 %75, label %76, label %77

76:                                               ; preds = %74
  call void @_ZN6google8protobuf8internal10LogMessageD1Ev(ptr noundef nonnull align 8 dereferenceable(56) %8) #3
  br label %77

77:                                               ; preds = %76, %74
  %78 = load i1, ptr %9, align 1
  br i1 %78, label %79, label %80

79:                                               ; preds = %77
  call void @llvm.lifetime.end.p0(i64 56, ptr %8) #3
  br label %80

80:                                               ; preds = %79, %77
  call void @llvm.lifetime.end.p0(i64 8, ptr %7) #3
  br label %94

81:                                               ; preds = %38
  %82 = getelementptr inbounds nuw %"class.google::protobuf::strings::CheckedArrayByteSink", ptr %14, i32 0, i32 1
  %83 = load ptr, ptr %82, align 8, !tbaa !33
  %84 = getelementptr inbounds nuw %"class.google::protobuf::strings::CheckedArrayByteSink", ptr %14, i32 0, i32 3
  %85 = load i64, ptr %84, align 8, !tbaa !37
  %86 = getelementptr inbounds nuw i8, ptr %83, i64 %85
  %87 = load ptr, ptr %5, align 8, !tbaa !26
  %88 = load i64, ptr %6, align 8, !tbaa !10
  call void @llvm.memcpy.p0.p0.i64(ptr align 1 %86, ptr align 1 %87, i64 %88, i1 false)
  br label %89

89:                                               ; preds = %81, %29, %26
  %90 = load i64, ptr %6, align 8, !tbaa !10
  %91 = getelementptr inbounds nuw %"class.google::protobuf::strings::CheckedArrayByteSink", ptr %14, i32 0, i32 3
  %92 = load i64, ptr %91, align 8, !tbaa !37
  %93 = add i64 %92, %90
  store i64 %93, ptr %91, align 8, !tbaa !37
  call void @llvm.lifetime.end.p0(i64 8, ptr %7) #3
  ret void

94:                                               ; preds = %80
  %95 = load ptr, ptr %11, align 8
  %96 = load i32, ptr %12, align 4
  %97 = insertvalue { ptr, i32 } poison, ptr %95, 0
  %98 = insertvalue { ptr, i32 } %97, i32 %96, 1
  resume { ptr, i32 } %98
}